; ModuleID = '57/1241.c'
source_filename = "57/1241.c"
target datalayout = "e-m:e-p270:32:32-p271:32:32-p272:64:64-i64:64-f80:128-n8:16:32:64-S128"
target triple = "x86_64-pc-linux-gnu"

@.str = private unnamed_addr constant [3 x i8] c"%d\00", align 1
@.str.1 = private unnamed_addr constant [3 x i8] c"%s\00", align 1
@.str.2 = private unnamed_addr constant [4 x i8] c"%s\0A\00", align 1

; Function Attrs: noinline nounwind uwtable
define dso_local i32 @main() #0 {
  %1 = alloca i32, align 4
  %2 = alloca i32, align 4
  %3 = alloca i32, align 4
  %4 = alloca i32, align 4
  %5 = alloca [99 x [99 x i8]], align 16
  store i32 0, i32* %1, align 4
  %6 = call i32 (i8*, ...) @__isoc99_scanf(i8* getelementptr inbounds ([3 x i8], [3 x i8]* @.str, i64 0, i64 0), i32* %2)
  store i32 0, i32* %4, align 4
  br label %7

7:                                                ; preds = %17, %0
  %8 = load i32, i32* %4, align 4
  %9 = load i32, i32* %2, align 4
  %10 = icmp slt i32 %8, %9
  br i1 %10, label %11, label %20

11:                                               ; preds = %7
  %12 = load i32, i32* %4, align 4
  %13 = sext i32 %12 to i64
  %14 = getelementptr inbounds [99 x [99 x i8]], [99 x [99 x i8]]* %5, i64 0, i64 %13
  %15 = getelementptr inbounds [99 x i8], [99 x i8]* %14, i64 0, i64 0
  %16 = call i32 (i8*, ...) @__isoc99_scanf(i8* getelementptr inbounds ([3 x i8], [3 x i8]* @.str.1, i64 0, i64 0), i8* %15)
  br label %17

17:                                               ; preds = %11
  %18 = load i32, i32* %4, align 4
  %19 = add nsw i32 %18, 1
  store i32 %19, i32* %4, align 4
  br label %7

20:                                               ; preds = %7
  store i32 0, i32* %4, align 4
  br label %21

21:                                               ; preds = %82, %20
  %22 = load i32, i32* %4, align 4
  %23 = load i32, i32* %2, align 4
  %24 = icmp slt i32 %22, %23
  br i1 %24, label %25, label %85

25:                                               ; preds = %21
  %26 = load i32, i32* %4, align 4
  %27 = sext i32 %26 to i64
  %28 = getelementptr inbounds [99 x [99 x i8]], [99 x [99 x i8]]* %5, i64 0, i64 %27
  %29 = getelementptr inbounds [99 x i8], [99 x i8]* %28, i64 0, i64 0
  %30 = call i64 @strlen(i8* %29) #3
  %31 = trunc i64 %30 to i32
  store i32 %31, i32* %3, align 4
  %32 = load i32, i32* %4, align 4
  %33 = sext i32 %32 to i64
  %34 = getelementptr inbounds [99 x [99 x i8]], [99 x [99 x i8]]* %5, i64 0, i64 %33
  %35 = load i32, i32* %3, align 4
  %36 = sub nsw i32 %35, 1
  %37 = sext i32 %36 to i64
  %38 = getelementptr inbounds [99 x i8], [99 x i8]* %34, i64 0, i64 %37
  %39 = load i8, i8* %38, align 1
  %40 = sext i8 %39 to i32
  %41 = icmp eq i32 %40, 114
  br i1 %41, label %53, label %42

42:                                               ; preds = %25
  %43 = load i32, i32* %4, align 4
  %44 = sext i32 %43 to i64
  %45 = getelementptr inbounds [99 x [99 x i8]], [99 x [99 x i8]]* %5, i64 0, i64 %44
  %46 = load i32, i32* %3, align 4
  %47 = sub nsw i32 %46, 1
  %48 = sext i32 %47 to i64
  %49 = getelementptr inbounds [99 x i8], [99 x i8]* %45, i64 0, i64 %48
  %50 = load i8, i8* %49, align 1
  %51 = sext i8 %50 to i32
  %52 = icmp eq i32 %51, 121
  br i1 %52, label %53, label %61

53:                                               ; preds = %42, %25
  %54 = load i32, i32* %4, align 4
  %55 = sext i32 %54 to i64
  %56 = getelementptr inbounds [99 x [99 x i8]], [99 x [99 x i8]]* %5, i64 0, i64 %55
  %57 = load i32, i32* %3, align 4
  %58 = sub nsw i32 %57, 2
  %59 = sext i32 %58 to i64
  %60 = getelementptr inbounds [99 x i8], [99 x i8]* %56, i64 0, i64 %59
  store i8 0, i8* %60, align 1
  br label %81

61:                                               ; preds = %42
  %62 = load i32, i32* %4, align 4
  %63 = sext i32 %62 to i64
  %64 = getelementptr inbounds [99 x [99 x i8]], [99 x [99 x i8]]* %5, i64 0, i64 %63
  %65 = load i32, i32* %3, align 4
  %66 = sub nsw i32 %65, 1
  %67 = sext i32 %66 to i64
  %68 = getelementptr inbounds [99 x i8], [99 x i8]* %64, i64 0, i64 %67
  %69 = load i8, i8* %68, align 1
  %70 = sext i8 %69 to i32
  %71 = icmp eq i32 %70, 103
  br i1 %71, label %72, label %80

72:                                               ; preds = %61
  %73 = load i32, i32* %4, align 4
  %74 = sext i32 %73 to i64
  %75 = getelementptr inbounds [99 x [99 x i8]], [99 x [99 x i8]]* %5, i64 0, i64 %74
  %76 = load i32, i32* %3, align 4
  %77 = sub nsw i32 %76, 3
  %78 = sext i32 %77 to i64
  %79 = getelementptr inbounds [99 x i8], [99 x i8]* %75, i64 0, i64 %78
  store i8 0, i8* %79, align 1
  br label %80

80:                                               ; preds = %72, %61
  br label %81

81:                                               ; preds = %80, %53
  br label %82

82:                                               ; preds = %81
  %83 = load i32, i32* %4, align 4
  %84 = add nsw i32 %83, 1
  store i32 %84, i32* %4, align 4
  br label %21

85:                                               ; preds = %21
  store i32 0, i32* %4, align 4
  br label %86

86:                                               ; preds = %97, %85
  %87 = load i32, i32* %4, align 4
  %88 = load i32, i32* %2, align 4
  %89 = sub nsw i32 %88, 1
  %90 = icmp slt i32 %87, %89
  br i1 %90, label %91, label %100

91:                                               ; preds = %86
  %92 = load i32, i32* %4, align 4
  %93 = sext i32 %92 to i64
  %94 = getelementptr inbounds [99 x [99 x i8]], [99 x [99 x i8]]* %5, i64 0, i64 %93
  %95 = getelementptr inbounds [99 x i8], [99 x i8]* %94, i64 0, i64 0
  %96 = call i32 (i8*, ...) @printf(i8* getelementptr inbounds ([4 x i8], [4 x i8]* @.str.2, i64 0, i64 0), i8* %95)
  br label %97

97:                                               ; preds = %91
  %98 = load i32, i32* %4, align 4
  %99 = add nsw i32 %98, 1
  store i32 %99, i32* %4, align 4
  br label %86

100:                                              ; preds = %86
  %101 = load i32, i32* %2, align 4
  %102 = sub nsw i32 %101, 1
  %103 = sext i32 %102 to i64
  %104 = getelementptr inbounds [99 x [99 x i8]], [99 x [99 x i8]]* %5, i64 0, i64 %103
  %105 = getelementptr inbounds [99 x i8], [99 x i8]* %104, i64 0, i64 0
  %106 = call i32 (i8*, ...) @printf(i8* getelementptr inbounds ([3 x i8], [3 x i8]* @.str.1, i64 0, i64 0), i8* %105)
  ret i32 0
}

declare dso_local i32 @__isoc99_scanf(i8*, ...) #1

; Function Attrs: nounwind readonly
declare dso_local i64 @strlen(i8*) #2

declare dso_local i32 @printf(i8*, ...) #1


!llvm.module.flags = !{!0}
!llvm.ident = !{!1}

!0 = !{i32 1, !"wchar_size", i32 4}
!1 = !{!"clang version 10.0.0-4ubuntu1 "}
