; ModuleID = 'source-C-CXX/56/1241.c'
source_filename = "source-C-CXX/56/1241.c"
target datalayout = "e-m:e-p270:32:32-p271:32:32-p272:64:64-i64:64-f80:128-n8:16:32:64-S128"
target triple = "x86_64-pc-linux-gnu"

@.str = private unnamed_addr constant [3 x i8] c"%d\00", align 1
@.str.1 = private unnamed_addr constant [3 x i8] c"%s\00", align 1

; Function Attrs: nofree nounwind sspstrong uwtable
define dso_local i32 @main() local_unnamed_addr #0 {
  %1 = alloca i32, align 4
  %2 = alloca [99 x [99 x i8]], align 16
  %3 = bitcast i32* %1 to i8*
  call void @llvm.lifetime.start.p0i8(i64 4, i8* nonnull %3) #5
  %4 = getelementptr inbounds [99 x [99 x i8]], [99 x [99 x i8]]* %2, i64 0, i64 0, i64 0
  call void @llvm.lifetime.start.p0i8(i64 9801, i8* nonnull %4) #5
  %5 = call i32 (i8*, ...) @__isoc99_scanf(i8* getelementptr inbounds ([3 x i8], [3 x i8]* @.str, i64 0, i64 0), i32* nonnull %1)
  %6 = load i32, i32* %1, align 4, !tbaa !5
  %7 = icmp sgt i32 %6, 0
  br i1 %7, label %12, label %22

8:                                                ; preds = %12
  %9 = icmp sgt i32 %17, 0
  br i1 %9, label %10, label %22

10:                                               ; preds = %8
  %11 = zext i32 %17 to i64
  br label %26

12:                                               ; preds = %0, %12
  %13 = phi i64 [ %16, %12 ], [ 0, %0 ]
  %14 = getelementptr inbounds [99 x [99 x i8]], [99 x [99 x i8]]* %2, i64 0, i64 %13, i64 0
  %15 = call i32 (i8*, ...) @__isoc99_scanf(i8* getelementptr inbounds ([3 x i8], [3 x i8]* @.str.1, i64 0, i64 0), i8* nonnull %14)
  %16 = add nuw nsw i64 %13, 1
  %17 = load i32, i32* %1, align 4, !tbaa !5
  %18 = sext i32 %17 to i64
  %19 = icmp slt i64 %16, %18
  br i1 %19, label %12, label %8, !llvm.loop !9

20:                                               ; preds = %41
  %21 = icmp sgt i32 %17, 1
  br i1 %21, label %44, label %22

22:                                               ; preds = %0, %8, %20
  %23 = phi i32 [ %17, %20 ], [ %17, %8 ], [ %6, %0 ]
  %24 = add nsw i32 %23, -1
  %25 = sext i32 %24 to i64
  br label %53

26:                                               ; preds = %10, %41
  %27 = phi i64 [ 0, %10 ], [ %42, %41 ]
  %28 = getelementptr inbounds [99 x [99 x i8]], [99 x [99 x i8]]* %2, i64 0, i64 %27, i64 0
  %29 = call i64 @strlen(i8* noundef nonnull %28) #6
  %30 = shl i64 %29, 32
  %31 = add i64 %30, -4294967296
  %32 = ashr exact i64 %31, 32
  %33 = getelementptr inbounds [99 x [99 x i8]], [99 x [99 x i8]]* %2, i64 0, i64 %27, i64 %32
  %34 = load i8, i8* %33, align 1, !tbaa !11
  switch i8 %34, label %41 [
    i8 114, label %36
    i8 121, label %36
    i8 103, label %35
  ]

35:                                               ; preds = %26
  br label %36

36:                                               ; preds = %26, %26, %35
  %37 = phi i64 [ -12884901888, %35 ], [ -8589934592, %26 ], [ -8589934592, %26 ]
  %38 = add i64 %30, %37
  %39 = ashr exact i64 %38, 32
  %40 = getelementptr inbounds [99 x [99 x i8]], [99 x [99 x i8]]* %2, i64 0, i64 %27, i64 %39
  store i8 0, i8* %40, align 1, !tbaa !11
  br label %41

41:                                               ; preds = %36, %26
  %42 = add nuw nsw i64 %27, 1
  %43 = icmp eq i64 %42, %11
  br i1 %43, label %20, label %26, !llvm.loop !12

44:                                               ; preds = %20, %44
  %45 = phi i64 [ %48, %44 ], [ 0, %20 ]
  %46 = getelementptr inbounds [99 x [99 x i8]], [99 x [99 x i8]]* %2, i64 0, i64 %45, i64 0
  %47 = call i32 @puts(i8* nonnull %46)
  %48 = add nuw nsw i64 %45, 1
  %49 = load i32, i32* %1, align 4, !tbaa !5
  %50 = add nsw i32 %49, -1
  %51 = sext i32 %50 to i64
  %52 = icmp slt i64 %48, %51
  br i1 %52, label %44, label %53, !llvm.loop !13

53:                                               ; preds = %44, %22
  %54 = phi i64 [ %25, %22 ], [ %51, %44 ]
  %55 = getelementptr inbounds [99 x [99 x i8]], [99 x [99 x i8]]* %2, i64 0, i64 %54, i64 0
  %56 = call i32 (i8*, ...) @printf(i8* nonnull dereferenceable(1) getelementptr inbounds ([3 x i8], [3 x i8]* @.str.1, i64 0, i64 0), i8* nonnull %55)
  call void @llvm.lifetime.end.p0i8(i64 9801, i8* nonnull %4) #5
  call void @llvm.lifetime.end.p0i8(i64 4, i8* nonnull %3) #5
  ret i32 0
}

; Function Attrs: argmemonly mustprogress nofree nosync nounwind willreturn
declare void @llvm.lifetime.start.p0i8(i64 immarg, i8* nocapture) #1

; Function Attrs: nofree nounwind
declare noundef i32 @__isoc99_scanf(i8* nocapture noundef readonly, ...) local_unnamed_addr #2

; Function Attrs: argmemonly mustprogress nofree nounwind readonly willreturn
declare i64 @strlen(i8* nocapture) local_unnamed_addr #3

; Function Attrs: nofree nounwind
declare noundef i32 @printf(i8* nocapture noundef readonly, ...) local_unnamed_addr #2

; Function Attrs: argmemonly mustprogress nofree nosync nounwind willreturn
declare void @llvm.lifetime.end.p0i8(i64 immarg, i8* nocapture) #1

; Function Attrs: nofree nounwind
declare noundef i32 @puts(i8* nocapture noundef readonly) local_unnamed_addr #4


!llvm.module.flags = !{!0, !1, !2, !3}
!llvm.ident = !{!4}

!0 = !{i32 1, !"wchar_size", i32 4}
!1 = !{i32 7, !"PIC Level", i32 2}
!2 = !{i32 7, !"PIE Level", i32 2}
!3 = !{i32 7, !"uwtable", i32 1}
!4 = !{!"clang version 13.0.0"}
!5 = !{!6, !6, i64 0}
!6 = !{!"int", !7, i64 0}
!7 = !{!"omnipotent char", !8, i64 0}
!8 = !{!"Simple C/C++ TBAA"}
!9 = distinct !{!9, !10}
!10 = !{!"llvm.loop.mustprogress"}
!11 = !{!7, !7, i64 0}
!12 = distinct !{!12, !10}
!13 = distinct !{!13, !10}
